target datalayout = "e-m:e-p270:32:32-p271:32:32-p272:64:64-i64:64-i128:128-f80:128-n8:16:32:64-S128"
target triple = "x86_64-pc-linux-gnu"

%struct.Vec_Str_t_ = type { i32, i32, ptr }
%struct.Vec_Int_t_ = type { i32, i32, ptr }
%struct.Bac_Ntk_t_ = type { ptr, i32, i32, i32, i32, i32, i32, %struct.Vec_Int_t_, %struct.Vec_Int_t_, %struct.Vec_Int_t_, %struct.Vec_Str_t_, %struct.Vec_Int_t_, %struct.Vec_Int_t_, %struct.Vec_Int_t_, %struct.Vec_Int_t_, %struct.Vec_Int_t_, %struct.Vec_Int_t_, %struct.Vec_Int_t_ }
%struct.Bac_Man_t_ = type { ptr, ptr, ptr, ptr, i32, i32, ptr, ptr, ptr, %struct.Vec_Int_t_, %struct.Vec_Int_t_, %struct.Vec_Int_t_, %struct.Vec_Int_t_, ptr, ptr, [4 x i32], [73 x ptr], [73 x ptr] }

; Function Attrs: nounwind uwtable
define internal void @Vec_StrErase(ptr noundef %0) #0 {
  %2 = alloca ptr, align 8
  store ptr %0, ptr %2, align 8
  %3 = load ptr, ptr %2, align 8
  %4 = getelementptr inbounds %struct.Vec_Str_t_, ptr %3, i32 0, i32 2
  %5 = load ptr, ptr %4, align 8
  %6 = icmp ne ptr %5, null
  br i1 %6, label %7, label %13

7:                                                ; preds = %1
  %8 = load ptr, ptr %2, align 8
  %9 = getelementptr inbounds %struct.Vec_Str_t_, ptr %8, i32 0, i32 2
  %10 = load ptr, ptr %9, align 8
  call void @free(ptr noundef %10) #11
  %11 = load ptr, ptr %2, align 8
  %12 = getelementptr inbounds %struct.Vec_Str_t_, ptr %11, i32 0, i32 2
  store ptr null, ptr %12, align 8
  br label %14

13:                                               ; preds = %1
  br label %14

14:                                               ; preds = %13, %7
  %15 = load ptr, ptr %2, align 8
  %16 = getelementptr inbounds %struct.Vec_Str_t_, ptr %15, i32 0, i32 1
  store i32 0, ptr %16, align 4
  %17 = load ptr, ptr %2, align 8
  %18 = getelementptr inbounds %struct.Vec_Str_t_, ptr %17, i32 0, i32 0
  store i32 0, ptr %18, align 8
  ret void
}

; Function Attrs: nounwind uwtable
define internal i32 @Bac_ManNtkIsOk(ptr noundef %0, i32 noundef %1) #0 {
  %3 = alloca ptr, align 8
  %4 = alloca i32, align 4
  store ptr %0, ptr %3, align 8
  store i32 %1, ptr %4, align 4
  %5 = load i32, ptr %4, align 4
  %6 = icmp sgt i32 %5, 0
  br i1 %6, label %7, label %12

7:                                                ; preds = %2
  %8 = load i32, ptr %4, align 4
  %9 = load ptr, ptr %3, align 8
  %10 = call i32 @Bac_ManNtkNum(ptr noundef %9)
  %11 = icmp sle i32 %8, %10
  br label %12

12:                                               ; preds = %7, %2
  %13 = phi i1 [ false, %2 ], [ %11, %7 ]
  %14 = zext i1 %13 to i32
  ret i32 %14
}

; Function Attrs: nounwind uwtable
define internal void @Vec_IntErase(ptr noundef %0) #0 {
  %2 = alloca ptr, align 8
  store ptr %0, ptr %2, align 8
  %3 = load ptr, ptr %2, align 8
  %4 = getelementptr inbounds %struct.Vec_Int_t_, ptr %3, i32 0, i32 2
  %5 = load ptr, ptr %4, align 8
  %6 = icmp ne ptr %5, null
  br i1 %6, label %7, label %13

7:                                                ; preds = %1
  %8 = load ptr, ptr %2, align 8
  %9 = getelementptr inbounds %struct.Vec_Int_t_, ptr %8, i32 0, i32 2
  %10 = load ptr, ptr %9, align 8
  call void @free(ptr noundef %10) #11
  %11 = load ptr, ptr %2, align 8
  %12 = getelementptr inbounds %struct.Vec_Int_t_, ptr %11, i32 0, i32 2
  store ptr null, ptr %12, align 8
  br label %14

13:                                               ; preds = %1
  br label %14

14:                                               ; preds = %13, %7
  %15 = load ptr, ptr %2, align 8
  %16 = getelementptr inbounds %struct.Vec_Int_t_, ptr %15, i32 0, i32 1
  store i32 0, ptr %16, align 4
  %17 = load ptr, ptr %2, align 8
  %18 = getelementptr inbounds %struct.Vec_Int_t_, ptr %17, i32 0, i32 0
  store i32 0, ptr %18, align 8
  ret void
}

; Function Attrs: nounwind uwtable
define internal void @Bac_NtkFree(ptr noundef %0) #0 {
  %2 = alloca ptr, align 8
  store ptr %0, ptr %2, align 8
  %3 = load ptr, ptr %2, align 8
  %4 = getelementptr inbounds %struct.Bac_Ntk_t_, ptr %3, i32 0, i32 7
  call void @Vec_IntErase(ptr noundef %4)
  %5 = load ptr, ptr %2, align 8
  %6 = getelementptr inbounds %struct.Bac_Ntk_t_, ptr %5, i32 0, i32 8
  call void @Vec_IntErase(ptr noundef %6)
  %7 = load ptr, ptr %2, align 8
  %8 = getelementptr inbounds %struct.Bac_Ntk_t_, ptr %7, i32 0, i32 9
  call void @Vec_IntErase(ptr noundef %8)
  %9 = load ptr, ptr %2, align 8
  %10 = getelementptr inbounds %struct.Bac_Ntk_t_, ptr %9, i32 0, i32 10
  call void @Vec_StrErase(ptr noundef %10)
  %11 = load ptr, ptr %2, align 8
  %12 = getelementptr inbounds %struct.Bac_Ntk_t_, ptr %11, i32 0, i32 11
  call void @Vec_IntErase(ptr noundef %12)
  %13 = load ptr, ptr %2, align 8
  %14 = getelementptr inbounds %struct.Bac_Ntk_t_, ptr %13, i32 0, i32 12
  call void @Vec_IntErase(ptr noundef %14)
  %15 = load ptr, ptr %2, align 8
  %16 = getelementptr inbounds %struct.Bac_Ntk_t_, ptr %15, i32 0, i32 13
  call void @Vec_IntErase(ptr noundef %16)
  %17 = load ptr, ptr %2, align 8
  %18 = getelementptr inbounds %struct.Bac_Ntk_t_, ptr %17, i32 0, i32 14
  call void @Vec_IntErase(ptr noundef %18)
  %19 = load ptr, ptr %2, align 8
  %20 = getelementptr inbounds %struct.Bac_Ntk_t_, ptr %19, i32 0, i32 15
  call void @Vec_IntErase(ptr noundef %20)
  %21 = load ptr, ptr %2, align 8
  %22 = getelementptr inbounds %struct.Bac_Ntk_t_, ptr %21, i32 0, i32 16
  call void @Vec_IntErase(ptr noundef %22)
  %23 = load ptr, ptr %2, align 8
  %24 = getelementptr inbounds %struct.Bac_Ntk_t_, ptr %23, i32 0, i32 17
  call void @Vec_IntErase(ptr noundef %24)
  ret void
}

; Function Attrs: nounwind uwtable
define internal ptr @Bac_ManNtk(ptr noundef %0, i32 noundef %1) #0 {
  %3 = alloca ptr, align 8
  %4 = alloca i32, align 4
  store ptr %0, ptr %3, align 8
  store i32 %1, ptr %4, align 4
  %5 = load ptr, ptr %3, align 8
  %6 = load i32, ptr %4, align 4
  %7 = call i32 @Bac_ManNtkIsOk(ptr noundef %5, i32 noundef %6)
  %8 = icmp ne i32 %7, 0
  br i1 %8, label %9, label %16

9:                                                ; preds = %2
  %10 = load ptr, ptr %3, align 8
  %11 = getelementptr inbounds %struct.Bac_Man_t_, ptr %10, i32 0, i32 6
  %12 = load ptr, ptr %11, align 8
  %13 = load i32, ptr %4, align 4
  %14 = sext i32 %13 to i64
  %15 = getelementptr inbounds %struct.Bac_Ntk_t_, ptr %12, i64 %14
  br label %17

16:                                               ; preds = %2
  br label %17

17:                                               ; preds = %16, %9
  %18 = phi ptr [ %15, %9 ], [ null, %16 ]
  ret ptr %18
}

; Function Attrs: nounwind uwtable
define internal i32 @Bac_ManNtkNum(ptr noundef %0) #0 {
  %2 = alloca ptr, align 8
  store ptr %0, ptr %2, align 8
  %3 = load ptr, ptr %2, align 8
  %4 = getelementptr inbounds %struct.Bac_Man_t_, ptr %3, i32 0, i32 5
  %5 = load i32, ptr %4, align 4
  ret i32 %5
}

; Function Attrs: nounwind uwtable
define internal void @Bac_ManFree(ptr noundef %0) #0 {
  %2 = alloca ptr, align 8
  %3 = alloca ptr, align 8
  %4 = alloca i32, align 4
  store ptr %0, ptr %2, align 8
  store i32 1, ptr %4, align 4
  br label %5

5:                                                ; preds = %18, %1
  %6 = load i32, ptr %4, align 4
  %7 = load ptr, ptr %2, align 8
  %8 = call i32 @Bac_ManNtkNum(ptr noundef %7)
  %9 = icmp sle i32 %6, %8
  br i1 %9, label %10, label %14

10:                                               ; preds = %5
  %11 = load ptr, ptr %2, align 8
  %12 = load i32, ptr %4, align 4
  %13 = call ptr @Bac_ManNtk(ptr noundef %11, i32 noundef %12)
  store ptr %13, ptr %3, align 8
  br label %14

14:                                               ; preds = %10, %5
  %15 = phi i1 [ false, %5 ], [ true, %10 ]
  br i1 %15, label %16, label %21

16:                                               ; preds = %14
  %17 = load ptr, ptr %3, align 8
  call void @Bac_NtkFree(ptr noundef %17)
  br label %18

18:                                               ; preds = %16
  %19 = load i32, ptr %4, align 4
  %20 = add nsw i32 %19, 1
  store i32 %20, ptr %4, align 4
  br label %5, !llvm.loop !15

21:                                               ; preds = %14
  %22 = load ptr, ptr %2, align 8
  %23 = getelementptr inbounds %struct.Bac_Man_t_, ptr %22, i32 0, i32 11
  call void @Vec_IntErase(ptr noundef %23)
  %24 = load ptr, ptr %2, align 8
  %25 = getelementptr inbounds %struct.Bac_Man_t_, ptr %24, i32 0, i32 12
  call void @Vec_IntErase(ptr noundef %25)
  %26 = load ptr, ptr %2, align 8
  %27 = getelementptr inbounds %struct.Bac_Man_t_, ptr %26, i32 0, i32 9
  call void @Vec_IntErase(ptr noundef %27)
  %28 = load ptr, ptr %2, align 8
  %29 = getelementptr inbounds %struct.Bac_Man_t_, ptr %28, i32 0, i32 10
  call void @Vec_IntErase(ptr noundef %29)
  %30 = load ptr, ptr %2, align 8
  %31 = getelementptr inbounds %struct.Bac_Man_t_, ptr %30, i32 0, i32 2
  %32 = load ptr, ptr %31, align 8
  call void @Abc_NamDeref(ptr noundef %32)
  %33 = load ptr, ptr %2, align 8
  %34 = getelementptr inbounds %struct.Bac_Man_t_, ptr %33, i32 0, i32 3
  %35 = load ptr, ptr %34, align 8
  call void @Abc_NamDeref(ptr noundef %35)
  %36 = load ptr, ptr %2, align 8
  %37 = getelementptr inbounds %struct.Bac_Man_t_, ptr %36, i32 0, i32 0
  %38 = load ptr, ptr %37, align 8
  %39 = icmp ne ptr %38, null
  br i1 %39, label %40, label %46

40:                                               ; preds = %21
  %41 = load ptr, ptr %2, align 8
  %42 = getelementptr inbounds %struct.Bac_Man_t_, ptr %41, i32 0, i32 0
  %43 = load ptr, ptr %42, align 8
  call void @free(ptr noundef %43) #11
  %44 = load ptr, ptr %2, align 8
  %45 = getelementptr inbounds %struct.Bac_Man_t_, ptr %44, i32 0, i32 0
  store ptr null, ptr %45, align 8
  br label %47

46:                                               ; preds = %21
  br label %47

47:                                               ; preds = %46, %40
  %48 = load ptr, ptr %2, align 8
  %49 = getelementptr inbounds %struct.Bac_Man_t_, ptr %48, i32 0, i32 1
  %50 = load ptr, ptr %49, align 8
  %51 = icmp ne ptr %50, null
  br i1 %51, label %52, label %58

52:                                               ; preds = %47
  %53 = load ptr, ptr %2, align 8
  %54 = getelementptr inbounds %struct.Bac_Man_t_, ptr %53, i32 0, i32 1
  %55 = load ptr, ptr %54, align 8
  call void @free(ptr noundef %55) #11
  %56 = load ptr, ptr %2, align 8
  %57 = getelementptr inbounds %struct.Bac_Man_t_, ptr %56, i32 0, i32 1
  store ptr null, ptr %57, align 8
  br label %59

58:                                               ; preds = %47
  br label %59

59:                                               ; preds = %58, %52
  %60 = load ptr, ptr %2, align 8
  %61 = getelementptr inbounds %struct.Bac_Man_t_, ptr %60, i32 0, i32 6
  %62 = load ptr, ptr %61, align 8
  %63 = icmp ne ptr %62, null
  br i1 %63, label %64, label %70

64:                                               ; preds = %59
  %65 = load ptr, ptr %2, align 8
  %66 = getelementptr inbounds %struct.Bac_Man_t_, ptr %65, i32 0, i32 6
  %67 = load ptr, ptr %66, align 8
  call void @free(ptr noundef %67) #11
  %68 = load ptr, ptr %2, align 8
  %69 = getelementptr inbounds %struct.Bac_Man_t_, ptr %68, i32 0, i32 6
  store ptr null, ptr %69, align 8
  br label %71

70:                                               ; preds = %59
  br label %71

71:                                               ; preds = %70, %64
  %72 = load ptr, ptr %2, align 8
  %73 = icmp ne ptr %72, null
  br i1 %73, label %74, label %76

74:                                               ; preds = %71
  %75 = load ptr, ptr %2, align 8
  call void @free(ptr noundef %75) #11
  store ptr null, ptr %2, align 8
  br label %77

76:                                               ; preds = %71
  br label %77

77:                                               ; preds = %76, %74
  ret void
}